; Function Attrs: mustprogress nofree norecurse nosync nounwind willreturn memory(argmem: read) uwtable
define dso_local noundef zeroext i1 @_ZNK4Luau8Property11isWriteOnlyEv(ptr noundef nonnull readonly align 8 captures(none) dereferenceable(176) %0) local_unnamed_addr #9 align 2 {
  %2 = getelementptr inbounds nuw i8, ptr %0, i64 152
  %3 = load i8, ptr %2, align 8, !tbaa !239, !range !119, !noundef !118
  %4 = trunc nuw i8 %3 to i1
  %5 = getelementptr inbounds nuw i8, ptr %0, i64 168
  %6 = load i8, ptr %5, align 8, !range !119
  %7 = trunc nuw i8 %6 to i1
  %not. = xor i1 %4, true
  %8 = select i1 %not., i1 %7, i1 false
  ret i1 %8
}